target datalayout = "e-m:e-p270:32:32-p271:32:32-p272:64:64-i64:64-i128:128-f80:128-n8:16:32:64-S128"
target triple = "x86_64-pc-linux-gnu"

%struct.FunctionCallInfoBaseData = type { ptr, ptr, ptr, i32, i8, i16, [0 x %struct.NullableDatum] }
%struct.NullableDatum = type { i64, i8 }
%struct.pg_re_flags = type { i32, i8 }
%struct.regexp_matches_ctx = type { ptr, i32, i32, ptr, i32, ptr, ptr, ptr, ptr, i32 }

@.str.3 = private unnamed_addr constant [9 x i8] c"regexp.c\00", align 1
@.str.6 = private unnamed_addr constant [37 x i8] c"invalid value for parameter \22%s\22: %d\00", align 1
@.str.7 = private unnamed_addr constant [6 x i8] c"start\00", align 1
@__func__.regexp_count = private unnamed_addr constant [13 x i8] c"regexp_count\00", align 1
@.str.9 = private unnamed_addr constant [40 x i8] c"%s does not support the \22global\22 option\00", align 1
@.str.10 = private unnamed_addr constant [15 x i8] c"regexp_count()\00", align 1

; Function Attrs: inlinehint nounwind uwtable
define internal i64 @Int32GetDatum(i32 noundef %0) #6 {
  %2 = alloca i32, align 4
  store i32 %0, ptr %2, align 4
  %3 = load i32, ptr %2, align 4
  %4 = sext i32 %3 to i64
  ret i64 %4
}

; Function Attrs: inlinehint nounwind uwtable
define internal i32 @DatumGetInt32(i64 noundef %0) #6 {
  %2 = alloca i64, align 8
  store i64 %0, ptr %2, align 8
  %3 = load i64, ptr %2, align 8
  %4 = trunc i64 %3 to i32
  ret i32 %4
}

; Function Attrs: inlinehint nounwind uwtable
define internal ptr @DatumGetPointer(i64 noundef %0) #6 {
  %2 = alloca i64, align 8
  store i64 %0, ptr %2, align 8
  %3 = load i64, ptr %2, align 8
  %4 = inttoptr i64 %3 to ptr
  ret ptr %4
}

; Function Attrs: nounwind uwtable
define dso_local i64 @regexp_count(ptr noundef %0) #0 {
  %2 = alloca ptr, align 8
  %3 = alloca ptr, align 8
  %4 = alloca ptr, align 8
  %5 = alloca i32, align 4
  %6 = alloca ptr, align 8
  %7 = alloca %struct.pg_re_flags, align 4
  %8 = alloca ptr, align 8
  store ptr %0, ptr %2, align 8
  call void @llvm.lifetime.start.p0(i64 8, ptr %3) #8
  %9 = load ptr, ptr %2, align 8
  %10 = getelementptr inbounds nuw %struct.FunctionCallInfoBaseData, ptr %9, i32 0, i32 6
  %11 = getelementptr inbounds [0 x %struct.NullableDatum], ptr %10, i64 0, i64 0
  %12 = getelementptr inbounds nuw %struct.NullableDatum, ptr %11, i32 0, i32 0
  %13 = load i64, ptr %12, align 8
  %14 = call ptr @DatumGetPointer(i64 noundef %13)
  %15 = call ptr @pg_detoast_datum_packed(ptr noundef %14)
  store ptr %15, ptr %3, align 8
  call void @llvm.lifetime.start.p0(i64 8, ptr %4) #8
  %16 = load ptr, ptr %2, align 8
  %17 = getelementptr inbounds nuw %struct.FunctionCallInfoBaseData, ptr %16, i32 0, i32 6
  %18 = getelementptr inbounds [0 x %struct.NullableDatum], ptr %17, i64 0, i64 1
  %19 = getelementptr inbounds nuw %struct.NullableDatum, ptr %18, i32 0, i32 0
  %20 = load i64, ptr %19, align 8
  %21 = call ptr @DatumGetPointer(i64 noundef %20)
  %22 = call ptr @pg_detoast_datum_packed(ptr noundef %21)
  store ptr %22, ptr %4, align 8
  call void @llvm.lifetime.start.p0(i64 4, ptr %5) #8
  store i32 1, ptr %5, align 4
  call void @llvm.lifetime.start.p0(i64 8, ptr %6) #8
  %23 = load ptr, ptr %2, align 8
  %24 = getelementptr inbounds nuw %struct.FunctionCallInfoBaseData, ptr %23, i32 0, i32 5
  %25 = load i16, ptr %24, align 2
  %26 = sext i16 %25 to i32
  %27 = icmp sgt i32 %26, 3
  br i1 %27, label %28, label %36

28:                                               ; preds = %1
  %29 = load ptr, ptr %2, align 8
  %30 = getelementptr inbounds nuw %struct.FunctionCallInfoBaseData, ptr %29, i32 0, i32 6
  %31 = getelementptr inbounds [0 x %struct.NullableDatum], ptr %30, i64 0, i64 3
  %32 = getelementptr inbounds nuw %struct.NullableDatum, ptr %31, i32 0, i32 0
  %33 = load i64, ptr %32, align 8
  %34 = call ptr @DatumGetPointer(i64 noundef %33)
  %35 = call ptr @pg_detoast_datum_packed(ptr noundef %34)
  br label %37

36:                                               ; preds = %1
  br label %37

37:                                               ; preds = %36, %28
  %38 = phi ptr [ %35, %28 ], [ null, %36 ]
  store ptr %38, ptr %6, align 8
  call void @llvm.lifetime.start.p0(i64 8, ptr %7) #8
  call void @llvm.lifetime.start.p0(i64 8, ptr %8) #8
  %39 = load ptr, ptr %2, align 8
  %40 = getelementptr inbounds nuw %struct.FunctionCallInfoBaseData, ptr %39, i32 0, i32 5
  %41 = load i16, ptr %40, align 2
  %42 = sext i16 %41 to i32
  %43 = icmp sgt i32 %42, 2
  br i1 %43, label %44, label %67

44:                                               ; preds = %37
  %45 = load ptr, ptr %2, align 8
  %46 = getelementptr inbounds nuw %struct.FunctionCallInfoBaseData, ptr %45, i32 0, i32 6
  %47 = getelementptr inbounds [0 x %struct.NullableDatum], ptr %46, i64 0, i64 2
  %48 = getelementptr inbounds nuw %struct.NullableDatum, ptr %47, i32 0, i32 0
  %49 = load i64, ptr %48, align 8
  %50 = call i32 @DatumGetInt32(i64 noundef %49)
  store i32 %50, ptr %5, align 4
  %51 = load i32, ptr %5, align 4
  %52 = icmp sle i32 %51, 0
  br i1 %52, label %53, label %66

53:                                               ; preds = %44
  br label %54

54:                                               ; preds = %53
  br i1 true, label %55, label %57

55:                                               ; preds = %54
  %56 = call zeroext i1 @errstart_cold(i32 noundef 21, ptr noundef null) #10
  br i1 %56, label %59, label %63

57:                                               ; preds = %54
  %58 = call zeroext i1 @errstart(i32 noundef 21, ptr noundef null)
  br i1 %58, label %59, label %63

59:                                               ; preds = %57, %55
  %60 = call i32 @errcode(i32 noundef 50856066)
  %61 = load i32, ptr %5, align 4
  %62 = call i32 (ptr, ...) @errmsg(ptr noundef @.str.6, ptr noundef @.str.7, i32 noundef %61)
  call void @errfinish(ptr noundef @.str.3, i32 noundef 1083, ptr noundef @__func__.regexp_count)
  br label %63

63:                                               ; preds = %59, %57, %55
  unreachable

64:                                               ; No predecessors!
  br label %65

65:                                               ; preds = %64
  br label %66

66:                                               ; preds = %65, %44
  br label %67

67:                                               ; preds = %66, %37
  %68 = load ptr, ptr %6, align 8
  call void @parse_re_flags(ptr noundef %7, ptr noundef %68)
  %69 = getelementptr inbounds nuw %struct.pg_re_flags, ptr %7, i32 0, i32 1
  %70 = load i8, ptr %69, align 4, !range !6, !noundef !7
  %71 = trunc i8 %70 to i1
  br i1 %71, label %72, label %84

72:                                               ; preds = %67
  br label %73

73:                                               ; preds = %72
  br i1 true, label %74, label %76

74:                                               ; preds = %73
  %75 = call zeroext i1 @errstart_cold(i32 noundef 21, ptr noundef null) #10
  br i1 %75, label %78, label %81

76:                                               ; preds = %73
  %77 = call zeroext i1 @errstart(i32 noundef 21, ptr noundef null)
  br i1 %77, label %78, label %81

78:                                               ; preds = %76, %74
  %79 = call i32 @errcode(i32 noundef 50856066)
  %80 = call i32 (ptr, ...) @errmsg(ptr noundef @.str.9, ptr noundef @.str.10)
  call void @errfinish(ptr noundef @.str.3, i32 noundef 1094, ptr noundef @__func__.regexp_count)
  br label %81

81:                                               ; preds = %78, %76, %74
  unreachable

82:                                               ; No predecessors!
  br label %83

83:                                               ; preds = %82
  br label %84

84:                                               ; preds = %83, %67
  %85 = getelementptr inbounds nuw %struct.pg_re_flags, ptr %7, i32 0, i32 1
  store i8 1, ptr %85, align 4
  %86 = load ptr, ptr %3, align 8
  %87 = load ptr, ptr %4, align 8
  %88 = load i32, ptr %5, align 4
  %89 = sub i32 %88, 1
  %90 = load ptr, ptr %2, align 8
  %91 = getelementptr inbounds nuw %struct.FunctionCallInfoBaseData, ptr %90, i32 0, i32 3
  %92 = load i32, ptr %91, align 8
  %93 = call ptr @setup_regexp_matches(ptr noundef %86, ptr noundef %87, ptr noundef %7, i32 noundef %89, i32 noundef %92, i1 noundef zeroext false, i1 noundef zeroext false, i1 noundef zeroext false)
  store ptr %93, ptr %8, align 8
  %94 = load ptr, ptr %8, align 8
  %95 = getelementptr inbounds nuw %struct.regexp_matches_ctx, ptr %94, i32 0, i32 1
  %96 = load i32, ptr %95, align 8
  %97 = call i64 @Int32GetDatum(i32 noundef %96)
  call void @llvm.lifetime.end.p0(i64 8, ptr %8) #8
  call void @llvm.lifetime.end.p0(i64 8, ptr %7) #8
  call void @llvm.lifetime.end.p0(i64 8, ptr %6) #8
  call void @llvm.lifetime.end.p0(i64 4, ptr %5) #8
  call void @llvm.lifetime.end.p0(i64 8, ptr %4) #8
  call void @llvm.lifetime.end.p0(i64 8, ptr %3) #8
  ret i64 %97
}