; Function Attrs: nounwind uwtable
define dso_local range(i64 -2147483648, 2147483648) i64 @regexp_count(ptr noundef readonly captures(none) %0) local_unnamed_addr #0 {
  %2 = alloca %struct.pg_re_flags, align 4
  %3 = getelementptr inbounds nuw i8, ptr %0, i64 32
  %4 = load i64, ptr %3, align 8
  %5 = inttoptr i64 %4 to ptr
  %6 = tail call ptr @pg_detoast_datum_packed(ptr noundef %5) #9
  %7 = getelementptr inbounds nuw i8, ptr %0, i64 48
  %8 = load i64, ptr %7, align 8
  %9 = inttoptr i64 %8 to ptr
  %10 = tail call ptr @pg_detoast_datum_packed(ptr noundef %9) #9
  %11 = getelementptr inbounds nuw i8, ptr %0, i64 30
  %12 = load i16, ptr %11, align 2
  %13 = icmp sgt i16 %12, 3
  br i1 %13, label %14, label %19

14:                                               ; preds = %1
  %15 = getelementptr inbounds nuw i8, ptr %0, i64 80
  %16 = load i64, ptr %15, align 8
  %17 = inttoptr i64 %16 to ptr
  %18 = tail call ptr @pg_detoast_datum_packed(ptr noundef %17) #9
  %.pr = load i16, ptr %11, align 2
  br label %19

19:                                               ; preds = %1, %14
  %20 = phi i16 [ %12, %1 ], [ %.pr, %14 ]
  %21 = phi ptr [ null, %1 ], [ %18, %14 ]
  call void @llvm.lifetime.start.p0(i64 8, ptr nonnull %2) #9
  %22 = icmp sgt i16 %20, 2
  br i1 %22, label %23, label %32

23:                                               ; preds = %19
  %24 = getelementptr inbounds nuw i8, ptr %0, i64 64
  %25 = load i64, ptr %24, align 8
  %26 = trunc i64 %25 to i32
  %27 = icmp slt i32 %26, 1
  br i1 %27, label %28, label %32

28:                                               ; preds = %23
  %29 = tail call zeroext i1 @errstart_cold(i32 noundef 21, ptr noundef null) #10
  tail call void @llvm.assume(i1 %29)
  %30 = tail call i32 @errcode(i32 noundef 50856066) #9
  %31 = tail call i32 (ptr, ...) @errmsg(ptr noundef nonnull @.str.6, ptr noundef nonnull @.str.7, i32 noundef %26) #9
  tail call void @errfinish(ptr noundef nonnull @.str.3, i32 noundef 1083, ptr noundef nonnull @__func__.regexp_count) #9
  unreachable

32:                                               ; preds = %23, %19
  %.0 = phi i32 [ %26, %23 ], [ 1, %19 ]
  call fastcc void @parse_re_flags(ptr noundef %2, ptr noundef %21)
  %33 = getelementptr inbounds nuw i8, ptr %2, i64 4
  %34 = load i8, ptr %33, align 4, !range !7, !noundef !8
  %35 = trunc nuw i8 %34 to i1
  br i1 %35, label %36, label %40

36:                                               ; preds = %32
  %37 = tail call zeroext i1 @errstart_cold(i32 noundef 21, ptr noundef null) #10
  tail call void @llvm.assume(i1 %37)
  %38 = tail call i32 @errcode(i32 noundef 50856066) #9
  %39 = tail call i32 (ptr, ...) @errmsg(ptr noundef nonnull @.str.9, ptr noundef nonnull @.str.10) #9
  tail call void @errfinish(ptr noundef nonnull @.str.3, i32 noundef 1094, ptr noundef nonnull @__func__.regexp_count) #9
  unreachable

40:                                               ; preds = %32
  %41 = add nsw i32 %.0, -1
  %42 = getelementptr inbounds nuw i8, ptr %0, i64 24
  %43 = load i32, ptr %42, align 8
  %.val = load i32, ptr %2, align 4
  %44 = tail call fastcc ptr @setup_regexp_matches(ptr noundef %6, ptr noundef %10, i32 %.val, i8 1, i32 noundef %41, i32 noundef %43, i1 noundef zeroext false, i1 noundef zeroext false, i1 noundef zeroext false)
  %45 = getelementptr inbounds nuw i8, ptr %44, i64 8
  %46 = load i32, ptr %45, align 8
  %47 = sext i32 %46 to i64
  call void @llvm.lifetime.end.p0(i64 8, ptr nonnull %2) #9
  ret i64 %47
}